target datalayout = "e-m:e-p270:32:32-p271:32:32-p272:64:64-i64:64-i128:128-f80:128-n8:16:32:64-S128"
target triple = "x86_64-pc-linux-gnu"

%"class.boost::urls::params_base::iterator" = type <{ %"struct.boost::urls::detail::params_iter_impl", i8, [7 x i8] }>
%"struct.boost::urls::detail::params_iter_impl" = type { [8 x i8], %"class.boost::urls::detail::query_ref", i64, i64, i64, i64, i64, i64 }
%"class.boost::urls::detail::query_ref" = type <{ ptr, ptr, i64, i64, i64, i8, [7 x i8] }>
%"class.boost::urls::params_base" = type { %"class.boost::urls::detail::query_ref", %"struct.boost::urls::encoding_opts", [5 x i8] }
%"struct.boost::urls::encoding_opts" = type { i8, i8, i8 }
%"class.boost::urls::params_base.base" = type { %"class.boost::urls::detail::query_ref", %"struct.boost::urls::encoding_opts" }
%"class.boost::core::basic_string_view" = type { ptr, i64 }
%"struct.boost::urls::detail::any_params_iter.base" = type <{ ptr, %"class.boost::core::basic_string_view", %"class.boost::core::basic_string_view", i8 }>
%"class.boost::urls::params_ref" = type { %"class.boost::urls::params_base.base", ptr }
%"struct.boost::urls::detail::param_value_iter" = type <{ %"struct.boost::urls::detail::any_params_iter.base", [7 x i8], i64, i8, i8, [6 x i8] }>
%"struct.boost::urls::detail::any_params_iter" = type <{ ptr, %"class.boost::core::basic_string_view", %"class.boost::core::basic_string_view", i8, [7 x i8] }>

@_ZTVN5boost4urls6detail16param_value_iterE = external unnamed_addr constant { [7 x ptr] }, align 8

; Function Attrs: mustprogress nounwind uwtable
define linkonce_odr hidden void @_ZN5boost4urls6detail15any_params_iterC2EbNS_4core17basic_string_viewIcEES5_(ptr noundef nonnull align 8 dereferenceable(41) %0, i1 noundef zeroext %1, ptr %2, i64 %3, ptr %4, i64 %5) unnamed_addr #2 comdat align 2 {
  %7 = alloca %"class.boost::core::basic_string_view", align 8
  %8 = alloca %"class.boost::core::basic_string_view", align 8
  %9 = alloca ptr, align 8
  %10 = alloca i8, align 1
  %11 = getelementptr inbounds nuw { ptr, i64 }, ptr %7, i32 0, i32 0
  store ptr %2, ptr %11, align 8
  %12 = getelementptr inbounds nuw { ptr, i64 }, ptr %7, i32 0, i32 1
  store i64 %3, ptr %12, align 8
  %13 = getelementptr inbounds nuw { ptr, i64 }, ptr %8, i32 0, i32 0
  store ptr %4, ptr %13, align 8
  %14 = getelementptr inbounds nuw { ptr, i64 }, ptr %8, i32 0, i32 1
  store i64 %5, ptr %14, align 8
  store ptr %0, ptr %9, align 8, !tbaa !3
  %15 = zext i1 %1 to i8
  store i8 %15, ptr %10, align 1, !tbaa !13
  %16 = load ptr, ptr %9, align 8
  store ptr getelementptr inbounds inrange(-16, 40) ({ [7 x ptr] }, ptr @_ZTVN5boost4urls6detail15any_params_iterE, i32 0, i32 0, i32 2), ptr %16, align 8, !tbaa !35
  %17 = getelementptr inbounds nuw %"struct.boost::urls::detail::any_params_iter", ptr %16, i32 0, i32 1
  call void @llvm.memcpy.p0.p0.i64(ptr align 8 %17, ptr align 8 %7, i64 16, i1 false), !tbaa.struct !26
  %18 = getelementptr inbounds nuw %"struct.boost::urls::detail::any_params_iter", ptr %16, i32 0, i32 2
  call void @llvm.memcpy.p0.p0.i64(ptr align 8 %18, ptr align 8 %8, i64 16, i1 false), !tbaa.struct !26
  %19 = getelementptr inbounds nuw %"struct.boost::urls::detail::any_params_iter", ptr %16, i32 0, i32 3
  %20 = load i8, ptr %10, align 1, !tbaa !13, !range !21, !noundef !22
  %21 = trunc i8 %20 to i1
  %22 = zext i1 %21 to i8
  store i8 %22, ptr %19, align 8, !tbaa !56
  ret void
}

; Function Attrs: mustprogress nounwind uwtable
define linkonce_odr hidden void @_ZN5boost4urls11params_base8iteratorC2ERKNS0_6detail16params_iter_implENS0_13encoding_optsE(ptr noundef nonnull align 8 dereferenceable(105) %0, ptr noundef nonnull align 8 dereferenceable(104) %1, i24 %2) unnamed_addr #2 comdat align 2 {
  %4 = alloca %"struct.boost::urls::encoding_opts", align 1
  %5 = alloca ptr, align 8
  %6 = alloca ptr, align 8
  store i24 %2, ptr %4, align 1
  store ptr %0, ptr %5, align 8, !tbaa !3
  store ptr %1, ptr %6, align 8, !tbaa !3
  %7 = load ptr, ptr %5, align 8
  %8 = getelementptr inbounds nuw %"class.boost::urls::params_base::iterator", ptr %7, i32 0, i32 0
  %9 = load ptr, ptr %6, align 8, !tbaa !3
  call void @llvm.memcpy.p0.p0.i64(ptr align 8 %8, ptr align 8 %9, i64 104, i1 false)
  %10 = getelementptr inbounds nuw %"class.boost::urls::params_base::iterator", ptr %7, i32 0, i32 1
  %11 = getelementptr inbounds nuw %"struct.boost::urls::encoding_opts", ptr %4, i32 0, i32 0
  %12 = load i8, ptr %11, align 1, !tbaa !20, !range !21, !noundef !22
  %13 = trunc i8 %12 to i1
  %14 = zext i1 %13 to i8
  store i8 %14, ptr %10, align 8, !tbaa !23
  ret void
}

; Function Attrs: mustprogress nounwind uwtable
define linkonce_odr hidden void @_ZN5boost4urls6detail16param_value_iterC2EmRKNS_4core17basic_string_viewIcEEb(ptr noundef nonnull align 8 dereferenceable(58) %0, i64 noundef %1, ptr noundef nonnull align 8 dereferenceable(16) %2, i1 noundef zeroext %3) unnamed_addr #2 comdat align 2 {
  %5 = alloca ptr, align 8
  %6 = alloca i64, align 8
  %7 = alloca ptr, align 8
  %8 = alloca i8, align 1
  %9 = alloca %"class.boost::core::basic_string_view", align 8
  %10 = alloca %"class.boost::core::basic_string_view", align 8
  store ptr %0, ptr %5, align 8, !tbaa !3
  store i64 %1, ptr %6, align 8, !tbaa !27
  store ptr %2, ptr %7, align 8, !tbaa !3
  %11 = zext i1 %3 to i8
  store i8 %11, ptr %8, align 1, !tbaa !13
  %12 = load ptr, ptr %5, align 8
  %13 = load ptr, ptr %7, align 8, !tbaa !3
  call void @llvm.memcpy.p0.p0.i64(ptr align 8 %9, ptr align 8 %13, i64 16, i1 false), !tbaa.struct !26
  call void @_ZN5boost4core17basic_string_viewIcEC2Ev(ptr noundef nonnull align 8 dereferenceable(16) %10) #10
  %14 = getelementptr inbounds nuw { ptr, i64 }, ptr %9, i32 0, i32 0
  %15 = load ptr, ptr %14, align 8
  %16 = getelementptr inbounds nuw { ptr, i64 }, ptr %9, i32 0, i32 1
  %17 = load i64, ptr %16, align 8
  %18 = getelementptr inbounds nuw { ptr, i64 }, ptr %10, i32 0, i32 0
  %19 = load ptr, ptr %18, align 8
  %20 = getelementptr inbounds nuw { ptr, i64 }, ptr %10, i32 0, i32 1
  %21 = load i64, ptr %20, align 8
  call void @_ZN5boost4urls6detail15any_params_iterC2EbNS_4core17basic_string_viewIcEES5_(ptr noundef nonnull align 8 dereferenceable(41) %12, i1 noundef zeroext false, ptr %15, i64 %17, ptr %19, i64 %21) #10
  store ptr getelementptr inbounds inrange(-16, 40) ({ [7 x ptr] }, ptr @_ZTVN5boost4urls6detail16param_value_iterE, i32 0, i32 0, i32 2), ptr %12, align 8, !tbaa !35
  %22 = getelementptr inbounds nuw %"struct.boost::urls::detail::param_value_iter", ptr %12, i32 0, i32 2
  %23 = load i64, ptr %6, align 8, !tbaa !27
  store i64 %23, ptr %22, align 8, !tbaa !37
  %24 = getelementptr inbounds nuw %"struct.boost::urls::detail::param_value_iter", ptr %12, i32 0, i32 3
  %25 = load i8, ptr %8, align 1, !tbaa !13, !range !21, !noundef !22
  %26 = trunc i8 %25 to i1
  %27 = zext i1 %26 to i8
  store i8 %27, ptr %24, align 8, !tbaa !40
  %28 = getelementptr inbounds nuw %"struct.boost::urls::detail::param_value_iter", ptr %12, i32 0, i32 4
  store i8 0, ptr %28, align 1, !tbaa !41
  ret void
}

; Function Attrs: mustprogress nounwind uwtable
define linkonce_odr hidden void @_ZNK5boost4urls6detail16params_iter_impl4nextEv(ptr dead_on_unwind noalias writable sret(%"struct.boost::urls::detail::params_iter_impl") align 8 %0, ptr noundef nonnull align 8 dereferenceable(104) %1) #2 comdat align 2 {
  %3 = alloca ptr, align 8
  store ptr %1, ptr %3, align 8, !tbaa !3
  %4 = load ptr, ptr %3, align 8
  call void @llvm.memcpy.p0.p0.i64(ptr align 8 %0, ptr align 8 %4, i64 104, i1 false)
  call void @_ZN5boost4urls6detail16params_iter_impl9incrementEv(ptr noundef nonnull align 8 dereferenceable(104) %0) #10
  ret void
}

; Function Attrs: mustprogress nounwind uwtable
define linkonce_odr hidden void @_ZN5boost4core17basic_string_viewIcEC2Ev(ptr noundef nonnull align 8 dereferenceable(16) %0) unnamed_addr #2 comdat align 2 {
  %2 = alloca ptr, align 8
  store ptr %0, ptr %2, align 8, !tbaa !3
  %3 = load ptr, ptr %2, align 8
  %4 = getelementptr inbounds nuw %"class.boost::core::basic_string_view", ptr %3, i32 0, i32 0
  store ptr null, ptr %4, align 8, !tbaa !31
  %5 = getelementptr inbounds nuw %"class.boost::core::basic_string_view", ptr %3, i32 0, i32 1
  store i64 0, ptr %5, align 8, !tbaa !33
  ret void
}

; Function Attrs: mustprogress nounwind uwtable
define void @_ZN5boost4urls10params_ref5unsetENS0_11params_base8iteratorE(ptr dead_on_unwind noalias writable sret(%"class.boost::urls::params_base::iterator") align 8 %0, ptr noundef nonnull align 8 dereferenceable(64) %1, ptr noundef byval(%"class.boost::urls::params_base::iterator") align 8 %2) #2 align 2 personality ptr @__gxx_personality_v0 {
  %4 = alloca ptr, align 8
  %5 = alloca %"class.boost::core::basic_string_view", align 8
  %6 = alloca %"struct.boost::urls::detail::params_iter_impl", align 8
  %7 = alloca %"struct.boost::urls::detail::params_iter_impl", align 8
  %8 = alloca %"struct.boost::urls::detail::param_value_iter", align 8
  %9 = alloca %"struct.boost::urls::encoding_opts", align 1
  %10 = alloca i24, align 4
  store ptr %1, ptr %4, align 8, !tbaa !3
  %11 = load ptr, ptr %4, align 8
  call void @llvm.lifetime.start.p0(i64 16, ptr %5) #10
  call void @_ZN5boost4core17basic_string_viewIcEC2Ev(ptr noundef nonnull align 8 dereferenceable(16) %5) #10
  call void @llvm.lifetime.start.p0(i64 104, ptr %6) #10
  %12 = getelementptr inbounds nuw %"class.boost::urls::params_ref", ptr %11, i32 0, i32 1
  %13 = load ptr, ptr %12, align 8, !tbaa !16
  %14 = getelementptr inbounds nuw %"class.boost::urls::params_base::iterator", ptr %2, i32 0, i32 0
  call void @llvm.lifetime.start.p0(i64 104, ptr %7) #10
  %15 = getelementptr inbounds nuw %"class.boost::urls::params_base::iterator", ptr %2, i32 0, i32 0
  call void @_ZNK5boost4urls6detail16params_iter_impl4nextEv(ptr dead_on_unwind writable sret(%"struct.boost::urls::detail::params_iter_impl") align 8 %7, ptr noundef nonnull align 8 dereferenceable(104) %15) #10
  call void @llvm.lifetime.start.p0(i64 64, ptr %8) #10
  %16 = getelementptr inbounds nuw %"class.boost::urls::params_base::iterator", ptr %2, i32 0, i32 0
  %17 = getelementptr inbounds nuw %"struct.boost::urls::detail::params_iter_impl", ptr %16, i32 0, i32 4
  %18 = load i64, ptr %17, align 8, !tbaa !34
  %19 = sub i64 %18, 1
  call void @_ZN5boost4urls6detail16param_value_iterC2EmRKNS_4core17basic_string_viewIcEEb(ptr noundef nonnull align 8 dereferenceable(58) %8, i64 noundef %19, ptr noundef nonnull align 8 dereferenceable(16) %5, i1 noundef zeroext false) #10
  invoke void @_ZN5boost4urls8url_base11edit_paramsERKNS0_6detail16params_iter_implES5_ONS2_15any_params_iterE(ptr dead_on_unwind writable sret(%"struct.boost::urls::detail::params_iter_impl") align 8 %6, ptr noundef nonnull align 8 dereferenceable(216) %13, ptr noundef nonnull align 8 dereferenceable(104) %14, ptr noundef nonnull align 8 dereferenceable(104) %7, ptr noundef nonnull align 8 dereferenceable(41) %8)
          to label %20 unwind label %23

20:                                               ; preds = %3
  %21 = getelementptr inbounds nuw %"class.boost::urls::params_base", ptr %11, i32 0, i32 1
  call void @llvm.memcpy.p0.p0.i64(ptr align 1 %9, ptr align 8 %21, i64 3, i1 false), !tbaa.struct !12
  call void @llvm.memcpy.p0.p0.i64(ptr align 4 %10, ptr align 1 %9, i64 3, i1 false)
  %22 = load i24, ptr %10, align 4
  call void @_ZN5boost4urls11params_base8iteratorC2ERKNS0_6detail16params_iter_implENS0_13encoding_optsE(ptr noundef nonnull align 8 dereferenceable(105) %0, ptr noundef nonnull align 8 dereferenceable(104) %6, i24 %22) #10
  call void @_ZN5boost4urls6detail15any_params_iterD2Ev(ptr noundef nonnull align 8 dereferenceable(58) %8) #10
  call void @llvm.lifetime.end.p0(i64 64, ptr %8) #10
  call void @llvm.lifetime.end.p0(i64 104, ptr %7) #10
  call void @llvm.lifetime.end.p0(i64 104, ptr %6) #10
  call void @llvm.lifetime.end.p0(i64 16, ptr %5) #10
  ret void

23:                                               ; preds = %3
  %24 = landingpad { ptr, i32 }
          catch ptr null
  %25 = extractvalue { ptr, i32 } %24, 0
  call void @__clang_call_terminate(ptr %25) #11
  unreachable
}